target datalayout = "e-m:e-p270:32:32-p271:32:32-p272:64:64-i64:64-i128:128-f80:128-n8:16:32:64-S128"
target triple = "x86_64-pc-linux-gnu"

%"class.nanogui::Color" = type { %"struct.nanogui::Array" }
%"struct.nanogui::Array" = type { [4 x float] }
%"class.std::__1::basic_string" = type { %"class.std::__1::__compressed_pair.4" }
%"class.std::__1::__compressed_pair.4" = type { %"struct.std::__1::__compressed_pair_elem.5" }
%"struct.std::__1::__compressed_pair_elem.5" = type { %"struct.std::__1::basic_string<char>::__rep" }
%"struct.std::__1::basic_string<char>::__rep" = type { %union.anon }
%union.anon = type { %"struct.std::__1::basic_string<char>::__long" }
%"struct.std::__1::basic_string<char>::__long" = type { %struct.anon.6, i64, ptr }
%struct.anon.6 = type { i64 }
%"struct.std::__1::atomic" = type { %"struct.std::__1::__atomic_base" }
%"struct.std::__1::__atomic_base" = type { %"struct.std::__1::__atomic_base.0" }
%"struct.std::__1::__atomic_base.0" = type { %"struct.std::__1::__cxx_atomic_impl" }
%"struct.std::__1::__cxx_atomic_impl" = type { %"struct.std::__1::__cxx_atomic_base_impl" }
%"struct.std::__1::__cxx_atomic_base_impl" = type { i32 }
%"struct.nanogui::Array.2" = type { [2 x i32] }
%"class.std::__1::function.55" = type { %"class.std::__1::__function::__value_func.59" }
%"class.std::__1::__function::__value_func.59" = type { %"struct.std::__1::aligned_storage<24>::type", ptr, [8 x i8] }
%"struct.std::__1::aligned_storage<24>::type" = type { [32 x i8] }
%"class.std::__1::function.50" = type { %"class.std::__1::__function::__value_func.53" }
%"class.std::__1::__function::__value_func.53" = type { %"struct.std::__1::aligned_storage<24>::type", ptr, [8 x i8] }
%class.anon.128 = type { ptr }
%"class.std::__1::function" = type { %"class.std::__1::__function::__value_func" }
%"class.std::__1::__function::__value_func" = type { %"struct.std::__1::aligned_storage<24>::type", ptr, [8 x i8] }
%"class.std::__1::shared_ptr.24" = type { ptr, ptr }
%"class.tev::ImageViewer" = type <{ %"class.nanogui::Screen", %"class.tev::SharedQueue", i8, i8, [6 x i8], ptr, ptr, ptr, ptr, ptr, i8, [7 x i8], ptr, ptr, ptr, ptr, ptr, ptr, ptr, ptr, %"class.std::__1::shared_ptr", %"class.std::__1::shared_ptr.24", %"class.std::__1::shared_ptr.24", %"class.std::__1::vector.25", ptr, %"class.std::__1::set", ptr, ptr, ptr, %"class.std::__1::chrono::time_point", %"class.std::__1::vector.40", %"class.std::__1::vector.40", ptr, ptr, %"class.std::__1::chrono::time_point", ptr, ptr, ptr, ptr, ptr, %"class.std::__1::basic_string", ptr, %"struct.nanogui::Array.2", i32, [4 x i8], i64, i64, i8, [7 x i8], ptr, i32, [4 x i8] }>
%"class.nanogui::Screen" = type { %"class.nanogui::Widget.base", ptr, ptr, [6 x ptr], i32, %"class.std::__1::vector", %"struct.nanogui::Array.2", float, i32, i32, %"struct.nanogui::Array.2", i8, ptr, double, i8, %"class.nanogui::Color", %"class.std::__1::basic_string", i8, i8, i8, i8, i8, i8, %"class.std::__1::function" }
%"class.nanogui::Widget.base" = type <{ %"class.nanogui::Object.base", [4 x i8], ptr, %"class.nanogui::ref", %"class.nanogui::ref.1", %"struct.nanogui::Array.2", %"struct.nanogui::Array.2", %"struct.nanogui::Array.2", %"class.std::__1::vector", i8, i8, i8, i8, [4 x i8], %"class.std::__1::basic_string", i32, float, i32 }>
%"class.nanogui::Object.base" = type <{ ptr, %"struct.std::__1::atomic" }>
%"class.nanogui::ref" = type { ptr }
%"class.nanogui::ref.1" = type { ptr }
%"class.std::__1::vector" = type { ptr, ptr, %"class.std::__1::__compressed_pair" }
%"class.std::__1::__compressed_pair" = type { %"struct.std::__1::__compressed_pair_elem" }
%"struct.std::__1::__compressed_pair_elem" = type { ptr }
%"class.tev::SharedQueue" = type { %"class.std::__1::deque", %"class.std::__1::mutex", %"class.std::__1::condition_variable" }
%"class.std::__1::deque" = type { %"struct.std::__1::__split_buffer", i64, %"class.std::__1::__compressed_pair.17" }
%"struct.std::__1::__split_buffer" = type { ptr, ptr, ptr, %"class.std::__1::__compressed_pair.11" }
%"class.std::__1::__compressed_pair.11" = type { %"struct.std::__1::__compressed_pair_elem.12" }
%"struct.std::__1::__compressed_pair_elem.12" = type { ptr }
%"class.std::__1::__compressed_pair.17" = type { %"struct.std::__1::__compressed_pair_elem.18" }
%"struct.std::__1::__compressed_pair_elem.18" = type { i64 }
%"class.std::__1::mutex" = type { %union.pthread_mutex_t }
%union.pthread_mutex_t = type { %struct.__pthread_mutex_s }
%struct.__pthread_mutex_s = type { i32, i32, i32, i32, i32, i16, i16, %struct.__pthread_internal_list }
%struct.__pthread_internal_list = type { ptr, ptr }
%"class.std::__1::condition_variable" = type { %union.pthread_cond_t }
%union.pthread_cond_t = type { %struct.__pthread_cond_s }
%struct.__pthread_cond_s = type { %union.__atomic_wide_counter, %union.__atomic_wide_counter, [2 x i32], [2 x i32], i32, i32, [2 x i32] }
%union.__atomic_wide_counter = type { i64 }
%"class.std::__1::shared_ptr" = type { ptr, ptr }
%"class.std::__1::vector.25" = type { ptr, ptr, %"class.std::__1::__compressed_pair.26" }
%"class.std::__1::__compressed_pair.26" = type { %"struct.std::__1::__compressed_pair_elem.27" }
%"struct.std::__1::__compressed_pair_elem.27" = type { ptr }
%"class.std::__1::set" = type { %"class.std::__1::__tree" }
%"class.std::__1::__tree" = type { ptr, %"class.std::__1::__compressed_pair.32", %"class.std::__1::__compressed_pair.38" }
%"class.std::__1::__compressed_pair.32" = type { %"struct.std::__1::__compressed_pair_elem.33" }
%"struct.std::__1::__compressed_pair_elem.33" = type { %"class.std::__1::__tree_end_node" }
%"class.std::__1::__tree_end_node" = type { ptr }
%"class.std::__1::__compressed_pair.38" = type { %"struct.std::__1::__compressed_pair_elem.18" }
%"class.std::__1::vector.40" = type { ptr, ptr, %"class.std::__1::__compressed_pair.41" }
%"class.std::__1::__compressed_pair.41" = type { %"struct.std::__1::__compressed_pair_elem.42" }
%"struct.std::__1::__compressed_pair_elem.42" = type { ptr }
%"class.std::__1::chrono::time_point" = type { %"class.std::__1::chrono::duration" }
%"class.std::__1::chrono::duration" = type { i64 }
%"class.nanogui::Widget" = type <{ %"class.nanogui::Object.base", [4 x i8], ptr, %"class.nanogui::ref", %"class.nanogui::ref.1", %"struct.nanogui::Array.2", %"struct.nanogui::Array.2", %"struct.nanogui::Array.2", %"class.std::__1::vector", i8, i8, i8, i8, [4 x i8], %"class.std::__1::basic_string", i32, float, i32, [4 x i8] }>
%"class.nanogui::Button" = type { %"class.nanogui::Widget.base", %"class.std::__1::basic_string", i32, i32, i8, i32, %"class.nanogui::Color", %"class.nanogui::Color", %"class.std::__1::function.50", %"class.std::__1::function.55", %"class.std::__1::vector.40", [8 x i8] }
%"class.tev::ImageCanvas" = type { %"class.nanogui::Canvas.base", float, float, float, float, i8, %"class.std::__1::shared_ptr.24", %"class.std::__1::shared_ptr.24", %"class.std::__1::basic_string", %"struct.nanogui::Matrix", %"class.std::__1::unique_ptr.62", i32, i32, %"class.std::__1::optional", %"class.std::__1::map", %"class.std::__1::map.79" }
%"class.nanogui::Canvas.base" = type <{ %"class.nanogui::Widget.base", [4 x i8], %"class.nanogui::ref.61", i8, [3 x i8], %"class.nanogui::Color", i8 }>
%"class.nanogui::ref.61" = type { ptr }
%"struct.nanogui::Matrix" = type { [3 x [3 x float]] }
%"class.std::__1::unique_ptr.62" = type { %"class.std::__1::__compressed_pair.63" }
%"class.std::__1::__compressed_pair.63" = type { %"struct.std::__1::__compressed_pair_elem.64" }
%"struct.std::__1::__compressed_pair_elem.64" = type { ptr }
%"class.std::__1::optional" = type { %"struct.std::__1::__optional_move_assign_base.base", [3 x i8] }
%"struct.std::__1::__optional_move_assign_base.base" = type { %"struct.std::__1::__optional_copy_assign_base.base" }
%"struct.std::__1::__optional_copy_assign_base.base" = type { %"struct.std::__1::__optional_move_base.base" }
%"struct.std::__1::__optional_move_base.base" = type { %"struct.std::__1::__optional_copy_base.base" }
%"struct.std::__1::__optional_copy_base.base" = type { %"struct.std::__1::__optional_storage_base.base" }
%"struct.std::__1::__optional_storage_base.base" = type { %"struct.std::__1::__optional_destruct_base.base" }
%"struct.std::__1::__optional_destruct_base.base" = type <{ %union.anon.68, i8 }>
%union.anon.68 = type { %"struct.tev::Box" }
%"struct.tev::Box" = type { %"struct.nanogui::Array.2", %"struct.nanogui::Array.2" }
%"class.std::__1::map" = type { %"class.std::__1::__tree.69" }
%"class.std::__1::__tree.69" = type { ptr, %"class.std::__1::__compressed_pair.70", %"class.std::__1::__compressed_pair.75" }
%"class.std::__1::__compressed_pair.70" = type { %"struct.std::__1::__compressed_pair_elem.33" }
%"class.std::__1::__compressed_pair.75" = type { %"struct.std::__1::__compressed_pair_elem.18" }
%"class.std::__1::map.79" = type { %"class.std::__1::__tree.80" }
%"class.std::__1::__tree.80" = type { ptr, %"class.std::__1::__compressed_pair.81", %"class.std::__1::__compressed_pair.86" }
%"class.std::__1::__compressed_pair.81" = type { %"struct.std::__1::__compressed_pair_elem.33" }
%"class.std::__1::__compressed_pair.86" = type { %"struct.std::__1::__compressed_pair_elem.18" }
%"class.std::__1::__function::__base.436" = type { ptr }
%"class.std::__1::__function::__func.1016" = type { %"class.std::__1::__function::__base.436", %"class.std::__1::__function::__alloc_func.1017" }
%"class.std::__1::__function::__alloc_func.1017" = type { %"class.std::__1::__compressed_pair.1018" }
%"class.std::__1::__compressed_pair.1018" = type { %"struct.std::__1::__compressed_pair_elem.1019" }
%"struct.std::__1::__compressed_pair_elem.1019" = type { %class.anon.128 }

@_ZTIN7nanogui6WidgetE = external constant ptr
@_ZTIN7nanogui6ButtonE = external constant ptr

; Function Attrs: mustprogress nounwind uwtable
define linkonce_odr dso_local void @_ZN7nanogui6Button10set_pushedEb(ptr noundef nonnull align 16 dereferenceable(328) %0, i1 noundef zeroext %1) #1 comdat align 2 {
  %3 = alloca ptr, align 8
  %4 = alloca i8, align 1
  store ptr %0, ptr %3, align 8
  %5 = zext i1 %1 to i8
  store i8 %5, ptr %4, align 1
  %6 = load ptr, ptr %3, align 8
  %7 = load i8, ptr %4, align 1
  %8 = trunc i8 %7 to i1
  %9 = getelementptr inbounds %"class.nanogui::Button", ptr %6, i32 0, i32 4
  %10 = zext i1 %8 to i8
  store i8 %10, ptr %9, align 8
  ret void
}

; Function Attrs: mustprogress nounwind uwtable
define linkonce_odr hidden noundef nonnull align 8 dereferenceable(8) ptr @_ZNKSt3__16vectorIPN7nanogui6WidgetENS_9allocatorIS3_EEEixB8ne190000Em(ptr noundef nonnull align 8 dereferenceable(24) %0, i64 noundef %1) #1 comdat align 2 {
  %3 = alloca ptr, align 8
  %4 = alloca i64, align 8
  store ptr %0, ptr %3, align 8
  store i64 %1, ptr %4, align 8
  %5 = load ptr, ptr %3, align 8
  %6 = getelementptr inbounds %"class.std::__1::vector", ptr %5, i32 0, i32 0
  %7 = load ptr, ptr %6, align 8
  %8 = load i64, ptr %4, align 8
  %9 = getelementptr inbounds ptr, ptr %7, i64 %8
  ret ptr %9
}

; Function Attrs: mustprogress nounwind uwtable
define linkonce_odr hidden noundef i64 @_ZNKSt3__16vectorIPN7nanogui6WidgetENS_9allocatorIS3_EEE4sizeB8ne190000Ev(ptr noundef nonnull align 8 dereferenceable(24) %0) #1 comdat align 2 {
  %2 = alloca ptr, align 8
  store ptr %0, ptr %2, align 8
  %3 = load ptr, ptr %2, align 8
  %4 = getelementptr inbounds %"class.std::__1::vector", ptr %3, i32 0, i32 1
  %5 = load ptr, ptr %4, align 8
  %6 = getelementptr inbounds %"class.std::__1::vector", ptr %3, i32 0, i32 0
  %7 = load ptr, ptr %6, align 8
  %8 = ptrtoint ptr %5 to i64
  %9 = ptrtoint ptr %7 to i64
  %10 = sub i64 %8, %9
  %11 = sdiv exact i64 %10, 8
  ret i64 %11
}

; Function Attrs: mustprogress nounwind uwtable
define linkonce_odr dso_local noundef nonnull align 8 dereferenceable(24) ptr @_ZNK7nanogui6Widget8childrenEv(ptr noundef nonnull align 8 dereferenceable(132) %0) #1 comdat align 2 {
  %2 = alloca ptr, align 8
  store ptr %0, ptr %2, align 8
  %3 = load ptr, ptr %2, align 8
  %4 = getelementptr inbounds %"class.nanogui::Widget", ptr %3, i32 0, i32 8
  ret ptr %4
}

; Function Attrs: mustprogress nounwind uwtable
define linkonce_odr dso_local void @_ZN3tev11ImageCanvas9setMetricENS_7EMetricE(ptr noundef nonnull align 8 dereferenceable(376) %0, i32 noundef %1) #1 comdat align 2 {
  %3 = alloca ptr, align 8
  %4 = alloca i32, align 4
  store ptr %0, ptr %3, align 8
  store i32 %1, ptr %4, align 4
  %5 = load ptr, ptr %3, align 8
  %6 = load i32, ptr %4, align 4
  %7 = getelementptr inbounds %"class.tev::ImageCanvas", ptr %5, i32 0, i32 12
  store i32 %6, ptr %7, align 4
  ret void
}

; Function Attrs: mustprogress uwtable
define dso_local void @_ZN3tev11ImageViewer9setMetricENS_7EMetricE(ptr noundef nonnull align 16 dereferenceable(972) %0, i32 noundef %1) #4 align 2 {
  %3 = alloca ptr, align 8
  %4 = alloca i32, align 4
  %5 = alloca ptr, align 8
  %6 = alloca i64, align 8
  %7 = alloca ptr, align 8
  store ptr %0, ptr %3, align 8
  store i32 %1, ptr %4, align 4
  %8 = load ptr, ptr %3, align 8
  %9 = getelementptr inbounds %"class.tev::ImageViewer", ptr %8, i32 0, i32 38
  %10 = load ptr, ptr %9, align 8
  %11 = load i32, ptr %4, align 4
  call void @_ZN3tev11ImageCanvas9setMetricENS_7EMetricE(ptr noundef nonnull align 8 dereferenceable(376) %10, i32 noundef %11)
  %12 = getelementptr inbounds %"class.tev::ImageViewer", ptr %8, i32 0, i32 19
  %13 = load ptr, ptr %12, align 8
  %14 = call noundef nonnull align 8 dereferenceable(24) ptr @_ZNK7nanogui6Widget8childrenEv(ptr noundef nonnull align 8 dereferenceable(132) %13)
  store ptr %14, ptr %5, align 8
  store i64 0, ptr %6, align 8
  br label %15

15:                                               ; preds = %36, %2
  %16 = load i64, ptr %6, align 8
  %17 = load ptr, ptr %5, align 8
  %18 = call noundef i64 @_ZNKSt3__16vectorIPN7nanogui6WidgetENS_9allocatorIS3_EEE4sizeB8ne190000Ev(ptr noundef nonnull align 8 dereferenceable(24) %17) #11
  %19 = icmp ult i64 %16, %18
  br i1 %19, label %20, label %39

20:                                               ; preds = %15
  %21 = load ptr, ptr %5, align 8
  %22 = load i64, ptr %6, align 8
  %23 = call noundef nonnull align 8 dereferenceable(8) ptr @_ZNKSt3__16vectorIPN7nanogui6WidgetENS_9allocatorIS3_EEEixB8ne190000Em(ptr noundef nonnull align 8 dereferenceable(24) %21, i64 noundef %22) #11
  %24 = load ptr, ptr %23, align 8
  %25 = icmp eq ptr %24, null
  br i1 %25, label %28, label %26

26:                                               ; preds = %20
  %27 = call ptr @__dynamic_cast(ptr %24, ptr @_ZTIN7nanogui6WidgetE, ptr @_ZTIN7nanogui6ButtonE, i64 0) #11
  br label %29

28:                                               ; preds = %20
  br label %29

29:                                               ; preds = %28, %26
  %30 = phi ptr [ %27, %26 ], [ null, %28 ]
  store ptr %30, ptr %7, align 8
  %31 = load ptr, ptr %7, align 8
  %32 = load i64, ptr %6, align 8
  %33 = trunc i64 %32 to i32
  %34 = load i32, ptr %4, align 4
  %35 = icmp eq i32 %33, %34
  call void @_ZN7nanogui6Button10set_pushedEb(ptr noundef nonnull align 16 dereferenceable(328) %31, i1 noundef zeroext %35)
  br label %36

36:                                               ; preds = %29
  %37 = load i64, ptr %6, align 8
  %38 = add i64 %37, 1
  store i64 %38, ptr %6, align 8
  br label %15, !llvm.loop !34

39:                                               ; preds = %15
  ret void
}

; Function Attrs: mustprogress uwtable
define internal void @"_ZZN3tev11ImageViewerC1ERKNSt3__110shared_ptrINS_22BackgroundImagesLoaderEEEbbbENK4$_19clEv"(ptr noundef nonnull align 8 dereferenceable(8) %0) #4 align 2 {
  %2 = alloca ptr, align 8
  store ptr %0, ptr %2, align 8
  %3 = load ptr, ptr %2, align 8
  %4 = getelementptr inbounds %class.anon.128, ptr %3, i32 0, i32 0
  %5 = load ptr, ptr %4, align 8
  call void @_ZN3tev11ImageViewer9setMetricENS_7EMetricE(ptr noundef nonnull align 16 dereferenceable(972) %5, i32 noundef 3)
  ret void
}

; Function Attrs: mustprogress uwtable
define internal void @"_ZNSt3__18__invokeB8ne190000IRZN3tev11ImageViewerC1ERKNS_10shared_ptrINS1_22BackgroundImagesLoaderEEEbbbE4$_19JEEEDTclclsr3stdE7declvalIT_EEspclsr3stdE7declvalIT0_EEEEOSA_DpOSB_"(ptr noundef nonnull align 8 dereferenceable(8) %0) #4 {
  %2 = alloca ptr, align 8
  store ptr %0, ptr %2, align 8
  %3 = load ptr, ptr %2, align 8
  call void @"_ZZN3tev11ImageViewerC1ERKNSt3__110shared_ptrINS_22BackgroundImagesLoaderEEEbbbENK4$_19clEv"(ptr noundef nonnull align 8 dereferenceable(8) %3)
  ret void
}

; Function Attrs: mustprogress nounwind uwtable
define internal noundef nonnull align 8 dereferenceable(8) ptr @"_ZNSt3__122__compressed_pair_elemIZN3tev11ImageViewerC1ERKNS_10shared_ptrINS1_22BackgroundImagesLoaderEEEbbbE4$_19Li0ELb0EE5__getB8ne190000Ev"(ptr noundef nonnull align 8 dereferenceable(8) %0) #1 align 2 {
  %2 = alloca ptr, align 8
  store ptr %0, ptr %2, align 8
  %3 = load ptr, ptr %2, align 8
  %4 = getelementptr inbounds %"struct.std::__1::__compressed_pair_elem.1019", ptr %3, i32 0, i32 0
  ret ptr %4
}

; Function Attrs: mustprogress uwtable
define internal void @"_ZNSt3__128__invoke_void_return_wrapperIvLb1EE6__callB8ne190000IJRZN3tev11ImageViewerC1ERKNS_10shared_ptrINS3_22BackgroundImagesLoaderEEEbbbE4$_19EEEvDpOT_"(ptr noundef nonnull align 8 dereferenceable(8) %0) #4 align 2 {
  %2 = alloca ptr, align 8
  store ptr %0, ptr %2, align 8
  %3 = load ptr, ptr %2, align 8
  call void @"_ZNSt3__18__invokeB8ne190000IRZN3tev11ImageViewerC1ERKNS_10shared_ptrINS1_22BackgroundImagesLoaderEEEbbbE4$_19JEEEDTclclsr3stdE7declvalIT_EEspclsr3stdE7declvalIT0_EEEEOSA_DpOSB_"(ptr noundef nonnull align 8 dereferenceable(8) %3)
  ret void
}

; Function Attrs: mustprogress nounwind uwtable
define internal noundef nonnull align 8 dereferenceable(8) ptr @"_ZNSt3__117__compressed_pairIZN3tev11ImageViewerC1ERKNS_10shared_ptrINS1_22BackgroundImagesLoaderEEEbbbE4$_19NS_9allocatorIS8_EEE5firstB8ne190000Ev"(ptr noundef nonnull align 8 dereferenceable(8) %0) #1 align 2 {
  %2 = alloca ptr, align 8
  store ptr %0, ptr %2, align 8
  %3 = load ptr, ptr %2, align 8
  %4 = call noundef nonnull align 8 dereferenceable(8) ptr @"_ZNSt3__122__compressed_pair_elemIZN3tev11ImageViewerC1ERKNS_10shared_ptrINS1_22BackgroundImagesLoaderEEEbbbE4$_19Li0ELb0EE5__getB8ne190000Ev"(ptr noundef nonnull align 8 dereferenceable(8) %3) #11
  ret ptr %4
}

; Function Attrs: mustprogress uwtable
define internal void @"_ZNSt3__110__function12__alloc_funcIZN3tev11ImageViewerC1ERKNS_10shared_ptrINS2_22BackgroundImagesLoaderEEEbbbE4$_19NS_9allocatorIS9_EEFvvEEclB8ne190000Ev"(ptr noundef nonnull align 8 dereferenceable(8) %0) #4 align 2 {
  %2 = alloca ptr, align 8
  store ptr %0, ptr %2, align 8
  %3 = load ptr, ptr %2, align 8
  %4 = getelementptr inbounds %"class.std::__1::__function::__alloc_func.1017", ptr %3, i32 0, i32 0
  %5 = call noundef nonnull align 8 dereferenceable(8) ptr @"_ZNSt3__117__compressed_pairIZN3tev11ImageViewerC1ERKNS_10shared_ptrINS1_22BackgroundImagesLoaderEEEbbbE4$_19NS_9allocatorIS8_EEE5firstB8ne190000Ev"(ptr noundef nonnull align 8 dereferenceable(8) %4) #11
  call void @"_ZNSt3__128__invoke_void_return_wrapperIvLb1EE6__callB8ne190000IJRZN3tev11ImageViewerC1ERKNS_10shared_ptrINS3_22BackgroundImagesLoaderEEEbbbE4$_19EEEvDpOT_"(ptr noundef nonnull align 8 dereferenceable(8) %5)
  ret void
}

; Function Attrs: mustprogress uwtable
define internal void @"_ZNSt3__110__function6__funcIZN3tev11ImageViewerC1ERKNS_10shared_ptrINS2_22BackgroundImagesLoaderEEEbbbE4$_19NS_9allocatorIS9_EEFvvEEclEv"(ptr noundef nonnull align 8 dereferenceable(16) %0) unnamed_addr #4 align 2 {
  %2 = alloca ptr, align 8
  store ptr %0, ptr %2, align 8
  %3 = load ptr, ptr %2, align 8
  %4 = getelementptr inbounds %"class.std::__1::__function::__func.1016", ptr %3, i32 0, i32 1
  call void @"_ZNSt3__110__function12__alloc_funcIZN3tev11ImageViewerC1ERKNS_10shared_ptrINS2_22BackgroundImagesLoaderEEEbbbE4$_19NS_9allocatorIS9_EEFvvEEclB8ne190000Ev"(ptr noundef nonnull align 8 dereferenceable(8) %4)
  ret void
}