; Function Attrs: mustprogress nofree nounwind memory(readwrite, inaccessiblemem: read) uwtable
define internal void @"_ZNSt3__110__function6__funcIZN3tev11ImageViewerC1ERKNS_10shared_ptrINS2_22BackgroundImagesLoaderEEEbbbE4$_19NS_9allocatorIS9_EEFvvEEclEv"(ptr nocapture noundef nonnull readonly align 8 dereferenceable(16) %0) unnamed_addr #8 align 2 {
  %2 = getelementptr inbounds i8, ptr %0, i64 8
  %.val = load ptr, ptr %2, align 8
  %3 = getelementptr inbounds i8, ptr %.val, i64 872
  %4 = load ptr, ptr %3, align 8
  %5 = getelementptr inbounds i8, ptr %4, i64 300
  store i32 3, ptr %5, align 4
  %6 = getelementptr inbounds i8, ptr %.val, i64 632
  %7 = load ptr, ptr %6, align 8
  %8 = getelementptr inbounds i8, ptr %7, i64 64
  %9 = getelementptr inbounds i8, ptr %7, i64 72
  %10 = load ptr, ptr %9, align 8
  %11 = load ptr, ptr %8, align 8
  %.not.i.i.i.i.i = icmp eq ptr %10, %11
  br i1 %.not.i.i.i.i.i, label %"_ZNSt3__110__function12__alloc_funcIZN3tev11ImageViewerC1ERKNS_10shared_ptrINS2_22BackgroundImagesLoaderEEEbbbE4$_19NS_9allocatorIS9_EEFvvEEclB8ne190000Ev.exit", label %.lr.ph.i.i.i.i.i

.lr.ph.i.i.i.i.i:                                 ; preds = %1, %.lr.ph.i.i.i.i.i
  %12 = phi ptr [ %22, %.lr.ph.i.i.i.i.i ], [ %11, %1 ]
  %.010.i.i.i.i.i = phi i64 [ %20, %.lr.ph.i.i.i.i.i ], [ 0, %1 ]
  %13 = getelementptr inbounds ptr, ptr %12, i64 %.010.i.i.i.i.i
  %14 = load ptr, ptr %13, align 8, !nonnull !10, !noundef !10
  %15 = tail call ptr @__dynamic_cast(ptr nonnull %14, ptr nonnull @_ZTIN7nanogui6WidgetE, ptr nonnull @_ZTIN7nanogui6ButtonE, i64 0) #39
  %16 = and i64 %.010.i.i.i.i.i, 4294967295
  %17 = icmp eq i64 %16, 3
  %18 = zext i1 %17 to i8
  %19 = getelementptr inbounds i8, ptr %15, i64 168
  store i8 %18, ptr %19, align 8
  %20 = add nuw i64 %.010.i.i.i.i.i, 1
  %21 = load ptr, ptr %9, align 8
  %22 = load ptr, ptr %8, align 8
  %23 = ptrtoint ptr %21 to i64
  %24 = ptrtoint ptr %22 to i64
  %25 = sub i64 %23, %24
  %26 = ashr exact i64 %25, 3
  %27 = icmp ult i64 %20, %26
  br i1 %27, label %.lr.ph.i.i.i.i.i, label %"_ZNSt3__110__function12__alloc_funcIZN3tev11ImageViewerC1ERKNS_10shared_ptrINS2_22BackgroundImagesLoaderEEEbbbE4$_19NS_9allocatorIS9_EEFvvEEclB8ne190000Ev.exit", !llvm.loop !12

"_ZNSt3__110__function12__alloc_funcIZN3tev11ImageViewerC1ERKNS_10shared_ptrINS2_22BackgroundImagesLoaderEEEbbbE4$_19NS_9allocatorIS9_EEFvvEEclB8ne190000Ev.exit": ; preds = %.lr.ph.i.i.i.i.i, %1
  ret void
}